; Function Attrs: mustprogress nounwind uwtable
define internal fastcc noundef ptr @_ZN12_GLOBAL__N_122MemorySanitizerVisitor25convertBlendvToSelectMaskERN4llvm9IRBuilderINS1_14ConstantFolderENS1_24IRBuilderDefaultInserterEEEPNS1_5ValueE(ptr noundef nonnull align 8 dereferenceable(1632) %0, ptr noundef nonnull align 8 dereferenceable(144) %1, ptr noundef %2) unnamed_addr #0 align 2 {
  %4 = alloca %"class.llvm::Twine", align 8
  %5 = alloca %"class.llvm::Twine", align 8
  %6 = alloca %"class.llvm::TypeSize", align 8
  %7 = alloca %"class.llvm::Twine", align 8
  %8 = alloca %"class.llvm::Twine", align 8
  call void @llvm.lifetime.start.p0(i64 40, ptr nonnull %4)
  call void @llvm.lifetime.start.p0(i64 40, ptr nonnull %5)
  %9 = getelementptr i8, ptr %2, i64 8
  %.val.i = load ptr, ptr %9, align 8
  %10 = tail call fastcc noundef ptr @_ZN12_GLOBAL__N_122MemorySanitizerVisitor11getShadowTyEPN4llvm4TypeE(ptr noundef nonnull align 8 dereferenceable(1632) %0, ptr noundef %.val.i)
  %11 = load ptr, ptr %9, align 8
  %12 = icmp eq ptr %11, %10
  br i1 %12, label %_ZN12_GLOBAL__N_122MemorySanitizerVisitor21CreateAppToShadowCastERN4llvm9IRBuilderINS1_14ConstantFolderENS1_24IRBuilderDefaultInserterEEEPNS1_5ValueE.exit, label %13

13:                                               ; preds = %3
  %14 = getelementptr inbounds nuw i8, ptr %11, i64 8
  %15 = load i32, ptr %14, align 8
  %16 = and i32 %15, 255
  %17 = add nsw i32 %16, -17
  %spec.select.i.i.i.i = icmp ult i32 %17, 2
  br i1 %spec.select.i.i.i.i, label %18, label %_ZNK4llvm4Type18isPtrOrPtrVectorTyEv.exit.i

18:                                               ; preds = %13
  %19 = getelementptr inbounds nuw i8, ptr %11, i64 16
  %20 = load ptr, ptr %19, align 8
  %21 = load ptr, ptr %20, align 8
  %.phi.trans.insert.i.i = getelementptr inbounds nuw i8, ptr %21, i64 8
  %.pre.i.i = load i32, ptr %.phi.trans.insert.i.i, align 8
  %.pre1.i.i = and i32 %.pre.i.i, 255
  br label %_ZNK4llvm4Type18isPtrOrPtrVectorTyEv.exit.i

_ZNK4llvm4Type18isPtrOrPtrVectorTyEv.exit.i:      ; preds = %18, %13
  %.pre-phi.i.i = phi i32 [ %16, %13 ], [ %.pre1.i.i, %18 ]
  %22 = icmp eq i32 %.pre-phi.i.i, 14
  br i1 %22, label %23, label %26

23:                                               ; preds = %_ZNK4llvm4Type18isPtrOrPtrVectorTyEv.exit.i
  %24 = getelementptr inbounds nuw i8, ptr %4, i64 32
  store i16 257, ptr %24, align 8
  %25 = call noundef ptr @_ZN4llvm13IRBuilderBase10CreateCastENS_11Instruction7CastOpsEPNS_5ValueEPNS_4TypeERKNS_5TwineE(ptr noundef nonnull align 8 dereferenceable(128) %1, i32 noundef 47, ptr noundef nonnull %2, ptr noundef %10, ptr noundef nonnull align 8 dereferenceable(34) %4)
  br label %_ZN12_GLOBAL__N_122MemorySanitizerVisitor21CreateAppToShadowCastERN4llvm9IRBuilderINS1_14ConstantFolderENS1_24IRBuilderDefaultInserterEEEPNS1_5ValueE.exit

26:                                               ; preds = %_ZNK4llvm4Type18isPtrOrPtrVectorTyEv.exit.i
  %27 = getelementptr inbounds nuw i8, ptr %5, i64 32
  store i16 257, ptr %27, align 8
  %28 = call noundef ptr @_ZN4llvm13IRBuilderBase10CreateCastENS_11Instruction7CastOpsEPNS_5ValueEPNS_4TypeERKNS_5TwineE(ptr noundef nonnull align 8 dereferenceable(128) %1, i32 noundef 49, ptr noundef nonnull %2, ptr noundef %10, ptr noundef nonnull align 8 dereferenceable(34) %5)
  br label %_ZN12_GLOBAL__N_122MemorySanitizerVisitor21CreateAppToShadowCastERN4llvm9IRBuilderINS1_14ConstantFolderENS1_24IRBuilderDefaultInserterEEEPNS1_5ValueE.exit

_ZN12_GLOBAL__N_122MemorySanitizerVisitor21CreateAppToShadowCastERN4llvm9IRBuilderINS1_14ConstantFolderENS1_24IRBuilderDefaultInserterEEEPNS1_5ValueE.exit: ; preds = %3, %23, %26
  %.0.i = phi ptr [ %25, %23 ], [ %28, %26 ], [ %2, %3 ]
  call void @llvm.lifetime.end.p0(i64 40, ptr nonnull %4)
  call void @llvm.lifetime.end.p0(i64 40, ptr nonnull %5)
  %29 = getelementptr inbounds nuw i8, ptr %.0.i, i64 8
  %30 = load ptr, ptr %29, align 8
  %31 = getelementptr inbounds nuw i8, ptr %30, i64 24
  %32 = load ptr, ptr %31, align 8
  %33 = call { i64, i8 } @_ZNK4llvm4Type22getPrimitiveSizeInBitsEv(ptr noundef nonnull align 8 dereferenceable(24) %32) #27
  %.fca.0.extract = extractvalue { i64, i8 } %33, 0
  %.fca.1.extract = extractvalue { i64, i8 } %33, 1
  store i64 %.fca.0.extract, ptr %6, align 8
  %.sroa.2.0..sroa_idx = getelementptr inbounds i8, ptr %6, i64 8
  store i8 %.fca.1.extract, ptr %.sroa.2.0..sroa_idx, align 8
  %34 = call noundef i64 @_ZNK4llvm8TypeSizecvmEv(ptr noundef nonnull align 8 dereferenceable(9) %6) #23
  %35 = add i64 %34, 4294967295
  %36 = and i64 %35, 4294967295
  %37 = getelementptr inbounds nuw i8, ptr %7, i64 32
  store i16 257, ptr %37, align 8
  %38 = load ptr, ptr %29, align 8
  %39 = call noundef ptr @_ZN4llvm11ConstantInt3getEPNS_4TypeEmb(ptr noundef %38, i64 noundef %36, i1 noundef zeroext false) #23
  %40 = call noundef ptr @_ZN4llvm13IRBuilderBase10CreateAShrEPNS_5ValueES2_RKNS_5TwineEb(ptr noundef nonnull align 8 dereferenceable(128) %1, ptr noundef nonnull %.0.i, ptr noundef %39, ptr noundef nonnull align 8 dereferenceable(34) %7, i1 noundef zeroext false)
  %41 = getelementptr inbounds nuw i8, ptr %1, i64 72
  %42 = load ptr, ptr %41, align 8
  %43 = call noundef ptr @_ZN4llvm4Type9getInt1TyERNS_11LLVMContextE(ptr noundef nonnull align 8 dereferenceable(8) %42) #23
  %44 = getelementptr inbounds nuw i8, ptr %30, i64 32
  %45 = load i32, ptr %44, align 8
  %46 = call noundef ptr @_ZN4llvm15FixedVectorType3getEPNS_4TypeEj(ptr noundef %43, i32 noundef %45) #23
  %47 = getelementptr inbounds nuw i8, ptr %8, i64 32
  store i16 257, ptr %47, align 8
  %48 = call noundef ptr @_ZN4llvm13IRBuilderBase11CreateTruncEPNS_5ValueEPNS_4TypeERKNS_5TwineEbb(ptr noundef nonnull align 8 dereferenceable(128) %1, ptr noundef %40, ptr noundef %46, ptr noundef nonnull align 8 dereferenceable(34) %8, i1 noundef zeroext false, i1 noundef zeroext false)
  ret ptr %48
}